; Function Attrs: nounwind uwtable
define noalias nonnull ptr @l_Array_forIn_x27Unsafe_loop___at_Lean_Meta_Simp_mkSimpDiagSummary___spec__9___lambda__1(ptr noundef %0, ptr noundef %1, ptr noundef %2, ptr noundef %3, ptr noundef %4, ptr readnone captures(none) %5, ptr readnone captures(none) %6, ptr readnone captures(none) %7, ptr readnone captures(none) %8, ptr noundef %9) local_unnamed_addr #0 {
  %11 = load ptr, ptr @l___private_Lean_Meta_Tactic_Simp_Diagnostics_0__Lean_Meta_Simp_originToKey___closed__2, align 8, !tbaa !4
  tail call void @lean_inc_heartbeat() #5
  %12 = tail call noalias ptr @mi_malloc_small(i64 noundef 24) #5
  %13 = icmp eq ptr %12, null
  br i1 %13, label %14, label %lean_alloc_ctor.exit

14:                                               ; preds = %10
  tail call void @lean_internal_panic_out_of_memory() #6
  unreachable

lean_alloc_ctor.exit:                             ; preds = %10
  %15 = getelementptr inbounds nuw i8, ptr %12, i64 4
  store i32 1, ptr %12, align 4, !tbaa !8
  store i32 117571608, ptr %15, align 4
  %16 = getelementptr inbounds nuw i8, ptr %12, i64 8
  store ptr %11, ptr %16, align 8, !tbaa !4
  %17 = getelementptr inbounds nuw i8, ptr %12, i64 16
  store ptr %0, ptr %17, align 8, !tbaa !4
  %18 = load ptr, ptr @l_Array_forIn_x27Unsafe_loop___at_Lean_Meta_Simp_mkSimpDiagSummary___spec__9___lambda__1___closed__6, align 8, !tbaa !4
  tail call void @lean_inc_heartbeat() #5
  %19 = tail call noalias ptr @mi_malloc_small(i64 noundef 24) #5
  %20 = icmp eq ptr %19, null
  br i1 %20, label %21, label %lean_alloc_ctor.exit44

21:                                               ; preds = %lean_alloc_ctor.exit
  tail call void @lean_internal_panic_out_of_memory() #6
  unreachable

lean_alloc_ctor.exit44:                           ; preds = %lean_alloc_ctor.exit
  %22 = getelementptr inbounds nuw i8, ptr %19, i64 4
  store i32 1, ptr %19, align 4, !tbaa !8
  store i32 117571608, ptr %22, align 4
  %23 = getelementptr inbounds nuw i8, ptr %19, i64 8
  store ptr %12, ptr %23, align 8, !tbaa !4
  %24 = getelementptr inbounds nuw i8, ptr %19, i64 16
  store ptr %18, ptr %24, align 8, !tbaa !4
  %25 = tail call ptr @l___private_Init_Data_Repr_0__Nat_reprFast(ptr noundef %1) #5
  tail call void @lean_inc_heartbeat() #5
  %26 = tail call noalias ptr @mi_malloc_small(i64 noundef 16) #5
  %27 = icmp eq ptr %26, null
  br i1 %27, label %28, label %lean_alloc_ctor.exit45

28:                                               ; preds = %lean_alloc_ctor.exit44
  tail call void @lean_internal_panic_out_of_memory() #6
  unreachable

lean_alloc_ctor.exit45:                           ; preds = %lean_alloc_ctor.exit44
  %29 = getelementptr inbounds nuw i8, ptr %26, i64 4
  store i32 1, ptr %26, align 4, !tbaa !8
  store i32 50397200, ptr %29, align 4
  %30 = getelementptr inbounds nuw i8, ptr %26, i64 8
  store ptr %25, ptr %30, align 8, !tbaa !4
  %31 = tail call ptr @l_Lean_MessageData_ofFormat(ptr noundef nonnull %26) #5
  tail call void @lean_inc_heartbeat() #5
  %32 = tail call noalias ptr @mi_malloc_small(i64 noundef 24) #5
  %33 = icmp eq ptr %32, null
  br i1 %33, label %34, label %lean_alloc_ctor.exit46

34:                                               ; preds = %lean_alloc_ctor.exit45
  tail call void @lean_internal_panic_out_of_memory() #6
  unreachable

lean_alloc_ctor.exit46:                           ; preds = %lean_alloc_ctor.exit45
  %35 = getelementptr inbounds nuw i8, ptr %32, i64 4
  store i32 1, ptr %32, align 4, !tbaa !8
  store i32 117571608, ptr %35, align 4
  %36 = getelementptr inbounds nuw i8, ptr %32, i64 8
  store ptr %19, ptr %36, align 8, !tbaa !4
  %37 = getelementptr inbounds nuw i8, ptr %32, i64 16
  store ptr %31, ptr %37, align 8, !tbaa !4
  tail call void @lean_inc_heartbeat() #5
  %38 = tail call noalias ptr @mi_malloc_small(i64 noundef 24) #5
  %39 = icmp eq ptr %38, null
  br i1 %39, label %40, label %lean_alloc_ctor.exit47

40:                                               ; preds = %lean_alloc_ctor.exit46
  tail call void @lean_internal_panic_out_of_memory() #6
  unreachable

lean_alloc_ctor.exit47:                           ; preds = %lean_alloc_ctor.exit46
  %41 = getelementptr inbounds nuw i8, ptr %38, i64 4
  store i32 1, ptr %38, align 4, !tbaa !8
  store i32 117571608, ptr %41, align 4
  %42 = getelementptr inbounds nuw i8, ptr %38, i64 8
  store ptr %32, ptr %42, align 8, !tbaa !4
  %43 = getelementptr inbounds nuw i8, ptr %38, i64 16
  store ptr %11, ptr %43, align 8, !tbaa !4
  %44 = tail call ptr @l_Lean_stringToMessageData(ptr noundef %4) #5
  tail call void @lean_inc_heartbeat() #5
  %45 = tail call noalias ptr @mi_malloc_small(i64 noundef 24) #5
  %46 = icmp eq ptr %45, null
  br i1 %46, label %47, label %lean_alloc_ctor.exit48

47:                                               ; preds = %lean_alloc_ctor.exit47
  tail call void @lean_internal_panic_out_of_memory() #6
  unreachable

lean_alloc_ctor.exit48:                           ; preds = %lean_alloc_ctor.exit47
  %48 = getelementptr inbounds nuw i8, ptr %45, i64 4
  store i32 1, ptr %45, align 4, !tbaa !8
  store i32 117571608, ptr %48, align 4
  %49 = getelementptr inbounds nuw i8, ptr %45, i64 8
  store ptr %38, ptr %49, align 8, !tbaa !4
  %50 = getelementptr inbounds nuw i8, ptr %45, i64 16
  store ptr %44, ptr %50, align 8, !tbaa !4
  tail call void @lean_inc_heartbeat() #5
  %51 = tail call noalias ptr @mi_malloc_small(i64 noundef 24) #5
  %52 = icmp eq ptr %51, null
  br i1 %52, label %53, label %lean_alloc_ctor.exit49

53:                                               ; preds = %lean_alloc_ctor.exit48
  tail call void @lean_internal_panic_out_of_memory() #6
  unreachable

lean_alloc_ctor.exit49:                           ; preds = %lean_alloc_ctor.exit48
  %54 = getelementptr inbounds nuw i8, ptr %51, i64 4
  store i32 1, ptr %51, align 4, !tbaa !8
  store i32 117571608, ptr %54, align 4
  %55 = getelementptr inbounds nuw i8, ptr %51, i64 8
  store ptr %45, ptr %55, align 8, !tbaa !4
  %56 = getelementptr inbounds nuw i8, ptr %51, i64 16
  store ptr %11, ptr %56, align 8, !tbaa !4
  %57 = load ptr, ptr @l_Array_forIn_x27Unsafe_loop___at_Lean_Meta_Simp_mkSimpDiagSummary___spec__9___lambda__1___closed__4, align 8, !tbaa !4
  tail call void @lean_inc_heartbeat() #5
  %58 = tail call noalias ptr @mi_malloc_small(i64 noundef 32) #5
  %59 = icmp eq ptr %58, null
  br i1 %59, label %60, label %lean_alloc_ctor.exit50

60:                                               ; preds = %lean_alloc_ctor.exit49
  tail call void @lean_internal_panic_out_of_memory() #6
  unreachable

lean_alloc_ctor.exit50:                           ; preds = %lean_alloc_ctor.exit49
  %61 = getelementptr inbounds nuw i8, ptr %58, i64 4
  store i32 1, ptr %58, align 4, !tbaa !8
  store i32 151191584, ptr %61, align 4
  %62 = getelementptr inbounds nuw i8, ptr %58, i64 8
  store ptr %57, ptr %62, align 8, !tbaa !4
  %63 = getelementptr inbounds nuw i8, ptr %58, i64 16
  store ptr %51, ptr %63, align 8, !tbaa !4
  %64 = getelementptr inbounds nuw i8, ptr %58, i64 24
  store ptr %2, ptr %64, align 8, !tbaa !4
  %65 = tail call ptr @lean_array_push(ptr noundef %3, ptr noundef nonnull %58) #5
  tail call void @lean_inc_heartbeat() #5
  %66 = tail call noalias ptr @mi_malloc_small(i64 noundef 16) #5
  %67 = icmp eq ptr %66, null
  br i1 %67, label %68, label %lean_alloc_ctor.exit51

68:                                               ; preds = %lean_alloc_ctor.exit50
  tail call void @lean_internal_panic_out_of_memory() #6
  unreachable

lean_alloc_ctor.exit51:                           ; preds = %lean_alloc_ctor.exit50
  %69 = getelementptr inbounds nuw i8, ptr %66, i64 4
  store i32 1, ptr %66, align 4, !tbaa !8
  store i32 16842768, ptr %69, align 4
  %70 = getelementptr inbounds nuw i8, ptr %66, i64 8
  store ptr %65, ptr %70, align 8, !tbaa !4
  tail call void @lean_inc_heartbeat() #5
  %71 = tail call noalias ptr @mi_malloc_small(i64 noundef 24) #5
  %72 = icmp eq ptr %71, null
  br i1 %72, label %73, label %lean_alloc_ctor.exit52

73:                                               ; preds = %lean_alloc_ctor.exit51
  tail call void @lean_internal_panic_out_of_memory() #6
  unreachable

lean_alloc_ctor.exit52:                           ; preds = %lean_alloc_ctor.exit51
  %74 = getelementptr inbounds nuw i8, ptr %71, i64 4
  store i32 1, ptr %71, align 4, !tbaa !8
  store i32 131096, ptr %74, align 4
  %75 = getelementptr inbounds nuw i8, ptr %71, i64 8
  store ptr %66, ptr %75, align 8, !tbaa !4
  %76 = getelementptr inbounds nuw i8, ptr %71, i64 16
  store ptr %9, ptr %76, align 8, !tbaa !4
  ret ptr %71
}